; Function Attrs: mustprogress nofree norecurse nosync nounwind willreturn memory(readwrite, inaccessiblemem: none) uwtable
define void @_ZN10open_spiel11leduc_poker10LeducState4AnteEii(ptr nocapture noundef nonnull align 8 dereferenceable(330) %0, i32 noundef %1, i32 noundef %2) local_unnamed_addr #8 align 2 {
  %4 = getelementptr inbounds nuw i8, ptr %0, i64 84
  %5 = load i32, ptr %4, align 4
  %6 = add nsw i32 %5, %2
  store i32 %6, ptr %4, align 4
  %7 = getelementptr inbounds nuw i8, ptr %0, i64 216
  %8 = sext i32 %1 to i64
  %9 = load ptr, ptr %7, align 8
  %10 = getelementptr inbounds i32, ptr %9, i64 %8
  %11 = load i32, ptr %10, align 4
  %12 = add nsw i32 %11, %2
  store i32 %12, ptr %10, align 4
  %13 = sitofp i32 %2 to double
  %14 = getelementptr inbounds nuw i8, ptr %0, i64 192
  %15 = load ptr, ptr %14, align 8
  %16 = getelementptr inbounds double, ptr %15, i64 %8
  %17 = load double, ptr %16, align 8
  %18 = fsub double %17, %13
  store double %18, ptr %16, align 8
  ret void
}